target datalayout = "e-m:e-p270:32:32-p271:32:32-p272:64:64-i64:64-i128:128-f80:128-n8:16:32:64-S128"
target triple = "x86_64-pc-linux-gnu"

%struct.vp56_context = type { ptr, %struct.H264ChromaContext, %struct.HpelDSPContext, %struct.VideoDSPContext, %struct.VP3DSPContext, %struct.VP56DSPContext, [64 x i8], [4 x ptr], ptr, ptr, %struct.VPXRangeCoder, %struct.VPXRangeCoder, ptr, i32, i32, [4 x i32], [4 x i32], i32, i32, [6 x i32], i32, i16, i16, ptr, [4 x %struct.VP56RefDc], [6 x i32], [3 x [3 x i16]], i32, ptr, [8 x i8], [6 x [64 x i16]], [6 x i32], ptr, [6 x %struct.VP56mv], [2 x %struct.VP56mv], i32, i32, i32, i32, i32, i32, i32, [4 x i8], [256 x i32], [4 x [64 x i8]], [4 x i8], i32, i32, i32, i32, i32, i32, i32, [4 x i64], ptr, ptr, ptr, ptr, ptr, ptr, ptr, ptr, ptr, ptr, %struct.VP56Model, i32, %struct.GetBitContext, [2 x %struct.VLC], [2 x %struct.VLC], [2 x [3 x [4 x %struct.VLC]]], [2 x [2 x i32]], i32, i32 }
%struct.H264ChromaContext = type { [4 x ptr], [4 x ptr] }
%struct.HpelDSPContext = type { [4 x [4 x ptr]], [4 x [4 x ptr]], [4 x [4 x ptr]], [4 x ptr] }
%struct.VideoDSPContext = type { ptr, ptr }
%struct.VP3DSPContext = type { ptr, ptr, ptr, ptr, ptr, ptr, ptr, ptr }
%struct.VP56DSPContext = type { ptr, ptr, ptr }
%struct.VPXRangeCoder = type { i32, i32, ptr, ptr, i32, i32 }
%struct.VP56RefDc = type { i8, i32, i16 }
%struct.VP56mv = type { i16, i16 }
%struct.VP56Model = type { [64 x i8], [64 x i8], [64 x i8], [2 x i8], [2 x i8], [2 x [2 x i8]], [2 x [7 x i8]], [2 x [8 x i8]], [2 x [11 x i8]], [2 x [3 x [6 x [11 x i8]]]], [2 x [3 x [3 x [6 x [5 x i8]]]]], [2 x [36 x [5 x i8]]], [2 x [14 x i8]], [3 x [10 x [10 x i8]]], [3 x [10 x [2 x i8]]] }
%struct.GetBitContext = type { ptr, ptr, i32, i32, i32 }
%struct.VLC = type { i32, ptr, i32, i32 }

@ff_vp56_def_mb_types_stats = external constant [3 x [10 x [2 x i8]]], align 16

; Function Attrs: nounwind uwtable
define internal void @vp5_default_models_init(ptr noundef %0) #3 {
  %2 = alloca ptr, align 8
  %3 = alloca ptr, align 8
  %4 = alloca i32, align 4
  store ptr %0, ptr %2, align 8, !tbaa !29
  call void @llvm.lifetime.start.p0(i64 8, ptr %3) #8
  %5 = load ptr, ptr %2, align 8, !tbaa !29
  %6 = getelementptr inbounds nuw %struct.vp56_context, ptr %5, i32 0, i32 63
  %7 = load ptr, ptr %6, align 8, !tbaa !56
  store ptr %7, ptr %3, align 8, !tbaa !57
  call void @llvm.lifetime.start.p0(i64 4, ptr %4) #8
  store i32 0, ptr %4, align 4, !tbaa !31
  br label %8

8:                                                ; preds = %34, %1
  %9 = load i32, ptr %4, align 4, !tbaa !31
  %10 = icmp slt i32 %9, 2
  br i1 %10, label %11, label %37

11:                                               ; preds = %8
  %12 = load ptr, ptr %3, align 8, !tbaa !57
  %13 = getelementptr inbounds nuw %struct.VP56Model, ptr %12, i32 0, i32 3
  %14 = load i32, ptr %4, align 4, !tbaa !31
  %15 = sext i32 %14 to i64
  %16 = getelementptr inbounds [2 x i8], ptr %13, i64 0, i64 %15
  store i8 -128, ptr %16, align 1, !tbaa !58
  %17 = load ptr, ptr %3, align 8, !tbaa !57
  %18 = getelementptr inbounds nuw %struct.VP56Model, ptr %17, i32 0, i32 4
  %19 = load i32, ptr %4, align 4, !tbaa !31
  %20 = sext i32 %19 to i64
  %21 = getelementptr inbounds [2 x i8], ptr %18, i64 0, i64 %20
  store i8 -128, ptr %21, align 1, !tbaa !58
  %22 = load ptr, ptr %3, align 8, !tbaa !57
  %23 = getelementptr inbounds nuw %struct.VP56Model, ptr %22, i32 0, i32 5
  %24 = load i32, ptr %4, align 4, !tbaa !31
  %25 = sext i32 %24 to i64
  %26 = getelementptr inbounds [2 x [2 x i8]], ptr %23, i64 0, i64 %25
  %27 = getelementptr inbounds [2 x i8], ptr %26, i64 0, i64 0
  store i8 85, ptr %27, align 1, !tbaa !58
  %28 = load ptr, ptr %3, align 8, !tbaa !57
  %29 = getelementptr inbounds nuw %struct.VP56Model, ptr %28, i32 0, i32 5
  %30 = load i32, ptr %4, align 4, !tbaa !31
  %31 = sext i32 %30 to i64
  %32 = getelementptr inbounds [2 x [2 x i8]], ptr %29, i64 0, i64 %31
  %33 = getelementptr inbounds [2 x i8], ptr %32, i64 0, i64 1
  store i8 -128, ptr %33, align 1, !tbaa !58
  br label %34

34:                                               ; preds = %11
  %35 = load i32, ptr %4, align 4, !tbaa !31
  %36 = add nsw i32 %35, 1
  store i32 %36, ptr %4, align 4, !tbaa !31
  br label %8, !llvm.loop !74

37:                                               ; preds = %8
  %38 = load ptr, ptr %3, align 8, !tbaa !57
  %39 = getelementptr inbounds nuw %struct.VP56Model, ptr %38, i32 0, i32 14
  %40 = getelementptr inbounds [3 x [10 x [2 x i8]]], ptr %39, i64 0, i64 0
  call void @llvm.memcpy.p0.p0.i64(ptr align 1 %40, ptr align 16 @ff_vp56_def_mb_types_stats, i64 60, i1 false)
  %41 = load ptr, ptr %3, align 8, !tbaa !57
  %42 = getelementptr inbounds nuw %struct.VP56Model, ptr %41, i32 0, i32 6
  %43 = getelementptr inbounds [2 x [7 x i8]], ptr %42, i64 0, i64 0
  call void @llvm.memset.p0.i64(ptr align 1 %43, i8 -128, i64 14, i1 false)
  call void @llvm.lifetime.end.p0(i64 4, ptr %4) #8
  call void @llvm.lifetime.end.p0(i64 8, ptr %3) #8
  ret void
}