; Function Attrs: nofree norecurse nosync nounwind memory(readwrite, inaccessiblemem: none) uwtable
define internal void @vp5_default_models_init(ptr noundef readonly captures(none) %0) #5 {
.critedge:
  %1 = getelementptr inbounds nuw i8, ptr %0, i64 3256
  %2 = load ptr, ptr %1, align 8, !tbaa !50
  %3 = getelementptr inbounds nuw i8, ptr %2, i64 192
  %4 = getelementptr inbounds nuw i8, ptr %2, i64 194
  %5 = getelementptr inbounds nuw i8, ptr %2, i64 196
  store i16 -32640, ptr %3, align 1
  store i16 -32640, ptr %4, align 1
  store i8 85, ptr %5, align 1, !tbaa !54
  %6 = getelementptr inbounds nuw i8, ptr %2, i64 197
  store i8 -128, ptr %6, align 1, !tbaa !54
  %7 = getelementptr inbounds nuw i8, ptr %2, i64 198
  store i8 85, ptr %7, align 1, !tbaa !54
  %8 = getelementptr inbounds nuw i8, ptr %2, i64 199
  store i8 -128, ptr %8, align 1, !tbaa !54
  %9 = getelementptr inbounds nuw i8, ptr %2, i64 1876
  tail call void @llvm.memcpy.p0.p0.i64(ptr noundef nonnull align 1 dereferenceable(60) %9, ptr noundef nonnull align 16 dereferenceable(60) @ff_vp56_def_mb_types_stats, i64 60, i1 false)
  %10 = getelementptr inbounds nuw i8, ptr %2, i64 200
  tail call void @llvm.memset.p0.i64(ptr noundef nonnull align 1 dereferenceable(14) %10, i8 -128, i64 14, i1 false)
  ret void
}